target datalayout = "e-m:e-p270:32:32-p271:32:32-p272:64:64-i64:64-i128:128-f80:128-n8:16:32:64-S128"
target triple = "x86_64-pc-linux-gnu"

; Function Attrs: mustprogress nounwind uwtable
define linkonce_odr noundef float @_ZSt4sqrtf(float noundef %0) #3 comdat {
  %2 = alloca float, align 4
  store float %0, ptr %2, align 4
  %3 = load float, ptr %2, align 4
  %4 = call float @sqrtf(float noundef %3) #5
  ret float %4
}

; Function Attrs: mustprogress nounwind uwtable
define internal noundef float @_ZL5iprodPKfS0_(ptr noundef %0, ptr noundef %1) #3 {
  %3 = alloca ptr, align 8
  %4 = alloca ptr, align 8
  store ptr %0, ptr %3, align 8
  store ptr %1, ptr %4, align 8
  %5 = load ptr, ptr %3, align 8
  %6 = getelementptr inbounds float, ptr %5, i64 0
  %7 = load float, ptr %6, align 4
  %8 = load ptr, ptr %4, align 8
  %9 = getelementptr inbounds float, ptr %8, i64 0
  %10 = load float, ptr %9, align 4
  %11 = load ptr, ptr %3, align 8
  %12 = getelementptr inbounds float, ptr %11, i64 1
  %13 = load float, ptr %12, align 4
  %14 = load ptr, ptr %4, align 8
  %15 = getelementptr inbounds float, ptr %14, i64 1
  %16 = load float, ptr %15, align 4
  %17 = fmul float %13, %16
  %18 = call float @llvm.fmuladd.f32(float %7, float %10, float %17)
  %19 = load ptr, ptr %3, align 8
  %20 = getelementptr inbounds float, ptr %19, i64 2
  %21 = load float, ptr %20, align 4
  %22 = load ptr, ptr %4, align 8
  %23 = getelementptr inbounds float, ptr %22, i64 2
  %24 = load float, ptr %23, align 4
  %25 = call float @llvm.fmuladd.f32(float %21, float %24, float %18)
  ret float %25
}

; Function Attrs: mustprogress uwtable
define internal noundef float @_ZL4normPKf(ptr noundef %0) #0 {
  %2 = alloca ptr, align 8
  store ptr %0, ptr %2, align 8
  %3 = load ptr, ptr %2, align 8
  %4 = load ptr, ptr %2, align 8
  %5 = call noundef float @_ZL5iprodPKfS0_(ptr noundef %3, ptr noundef %4)
  %6 = call noundef float @_ZSt4sqrtf(float noundef %5)
  ret float %6
}

; Function Attrs: mustprogress uwtable
define noundef float @_Z21getGridSpacingFromBoxPA3_KfPKi(ptr noundef %0, ptr noundef %1) #0 {
  %3 = alloca ptr, align 8
  %4 = alloca ptr, align 8
  %5 = alloca float, align 4
  %6 = alloca i32, align 4
  %7 = alloca float, align 4
  store ptr %0, ptr %3, align 8
  store ptr %1, ptr %4, align 8
  store float 0.000000e+00, ptr %5, align 4
  store i32 0, ptr %6, align 4
  br label %8

8:                                                ; preds = %41, %2
  %9 = load i32, ptr %6, align 4
  %10 = icmp slt i32 %9, 3
  br i1 %10, label %11, label %44

11:                                               ; preds = %8
  %12 = load ptr, ptr %4, align 8
  %13 = load i32, ptr %6, align 4
  %14 = sext i32 %13 to i64
  %15 = getelementptr inbounds i32, ptr %12, i64 %14
  %16 = load i32, ptr %15, align 4
  %17 = icmp sgt i32 %16, 0
  br i1 %17, label %18, label %32

18:                                               ; preds = %11
  %19 = load ptr, ptr %3, align 8
  %20 = load i32, ptr %6, align 4
  %21 = sext i32 %20 to i64
  %22 = getelementptr inbounds [3 x float], ptr %19, i64 %21
  %23 = getelementptr inbounds [3 x float], ptr %22, i64 0, i64 0
  %24 = call noundef float @_ZL4normPKf(ptr noundef %23)
  %25 = load ptr, ptr %4, align 8
  %26 = load i32, ptr %6, align 4
  %27 = sext i32 %26 to i64
  %28 = getelementptr inbounds i32, ptr %25, i64 %27
  %29 = load i32, ptr %28, align 4
  %30 = sitofp i32 %29 to float
  %31 = fdiv float %24, %30
  br label %33

32:                                               ; preds = %11
  br label %33

33:                                               ; preds = %32, %18
  %34 = phi float [ %31, %18 ], [ 0.000000e+00, %32 ]
  store float %34, ptr %7, align 4
  %35 = load float, ptr %7, align 4
  %36 = load float, ptr %5, align 4
  %37 = fcmp ogt float %35, %36
  br i1 %37, label %38, label %40

38:                                               ; preds = %33
  %39 = load float, ptr %7, align 4
  store float %39, ptr %5, align 4
  br label %40

40:                                               ; preds = %38, %33
  br label %41

41:                                               ; preds = %40
  %42 = load i32, ptr %6, align 4
  %43 = add nsw i32 %42, 1
  store i32 %43, ptr %6, align 4
  br label %8, !llvm.loop !24

44:                                               ; preds = %8
  %45 = load float, ptr %5, align 4
  ret float %45
}