; Function Attrs: mustprogress nofree norecurse nosync nounwind willreturn memory(argmem: read) uwtable
define noundef float @_Z21getGridSpacingFromBoxPA3_KfPKi(ptr nocapture noundef readonly %0, ptr nocapture noundef readonly %1) local_unnamed_addr #3 {
  br label %3

3:                                                ; preds = %2, %19
  %indvars.iv = phi i64 [ 0, %2 ], [ %indvars.iv.next, %19 ]
  %.014 = phi float [ 0.000000e+00, %2 ], [ %.1, %19 ]
  %4 = getelementptr inbounds i32, ptr %1, i64 %indvars.iv
  %5 = load i32, ptr %4, align 4
  %6 = icmp sgt i32 %5, 0
  br i1 %6, label %7, label %19

7:                                                ; preds = %3
  %8 = getelementptr inbounds [3 x float], ptr %0, i64 %indvars.iv
  %9 = load float, ptr %8, align 4
  %10 = getelementptr inbounds i8, ptr %8, i64 4
  %11 = load float, ptr %10, align 4
  %12 = fmul float %11, %11
  %13 = tail call float @llvm.fmuladd.f32(float %9, float %9, float %12)
  %14 = getelementptr inbounds i8, ptr %8, i64 8
  %15 = load float, ptr %14, align 4
  %16 = tail call noundef float @llvm.fmuladd.f32(float %15, float %15, float %13)
  %sqrt.i = tail call noundef float @llvm.sqrt.f32(float %16)
  %17 = sitofp i32 %5 to float
  %18 = fdiv float %sqrt.i, %17
  br label %19

19:                                               ; preds = %3, %7
  %20 = phi float [ %18, %7 ], [ 0.000000e+00, %3 ]
  %21 = fcmp ogt float %20, %.014
  %.1 = select i1 %21, float %20, float %.014
  %indvars.iv.next = add nuw nsw i64 %indvars.iv, 1
  %exitcond.not = icmp eq i64 %indvars.iv.next, 3
  br i1 %exitcond.not, label %22, label %3, !llvm.loop !25

22:                                               ; preds = %19
  ret float %.1
}